; Function Attrs: mustprogress nofree norecurse nosync nounwind willreturn memory(write, argmem: readwrite, inaccessiblemem: none) uwtable
define hidden void @_ZN19OpenColorIO_v2_4dev31ExponentWithLinearTransformImpl8setGammaERA4_Kd(ptr nocapture noundef nonnull readonly align 8 dereferenceable(280) %this, ptr nocapture noundef nonnull readonly align 8 dereferenceable(32) %values) unnamed_addr #11 align 2 personality ptr @__gxx_personality_v0 {
entry:
  %0 = load double, ptr %values, align 8
  %m_redParams.i = getelementptr inbounds i8, ptr %this, i64 184
  %1 = load ptr, ptr %m_redParams.i, align 8
  store double %0, ptr %1, align 8
  %arrayidx4 = getelementptr inbounds i8, ptr %values, i64 8
  %2 = load double, ptr %arrayidx4, align 8
  %m_greenParams.i = getelementptr inbounds i8, ptr %this, i64 208
  %3 = load ptr, ptr %m_greenParams.i, align 8
  store double %2, ptr %3, align 8
  %arrayidx9 = getelementptr inbounds i8, ptr %values, i64 16
  %4 = load double, ptr %arrayidx9, align 8
  %m_blueParams.i = getelementptr inbounds i8, ptr %this, i64 232
  %5 = load ptr, ptr %m_blueParams.i, align 8
  store double %4, ptr %5, align 8
  %arrayidx14 = getelementptr inbounds i8, ptr %values, i64 24
  %6 = load double, ptr %arrayidx14, align 8
  %m_alphaParams.i = getelementptr inbounds i8, ptr %this, i64 256
  %7 = load ptr, ptr %m_alphaParams.i, align 8
  store double %6, ptr %7, align 8
  ret void
}